target datalayout = "e-m:e-p270:32:32-p271:32:32-p272:64:64-i64:64-i128:128-f80:128-n8:16:32:64-S128"
target triple = "x86_64-pc-linux-gnu"

%struct.VP8TBuffer = type { ptr, ptr, ptr, i32, i32, i32 }

; Function Attrs: nounwind uwtable
define hidden void @VP8TBufferInit(ptr noundef %0, i32 noundef %1) #0 {
  %3 = alloca ptr, align 8
  %4 = alloca i32, align 4
  store ptr %0, ptr %3, align 8, !tbaa !3
  store i32 %1, ptr %4, align 4, !tbaa !7
  %5 = load ptr, ptr %3, align 8, !tbaa !3
  %6 = getelementptr inbounds nuw %struct.VP8TBuffer, ptr %5, i32 0, i32 2
  store ptr null, ptr %6, align 8, !tbaa !9
  %7 = load ptr, ptr %3, align 8, !tbaa !3
  %8 = getelementptr inbounds nuw %struct.VP8TBuffer, ptr %7, i32 0, i32 0
  store ptr null, ptr %8, align 8, !tbaa !14
  %9 = load ptr, ptr %3, align 8, !tbaa !3
  %10 = getelementptr inbounds nuw %struct.VP8TBuffer, ptr %9, i32 0, i32 0
  %11 = load ptr, ptr %3, align 8, !tbaa !3
  %12 = getelementptr inbounds nuw %struct.VP8TBuffer, ptr %11, i32 0, i32 1
  store ptr %10, ptr %12, align 8, !tbaa !15
  %13 = load ptr, ptr %3, align 8, !tbaa !3
  %14 = getelementptr inbounds nuw %struct.VP8TBuffer, ptr %13, i32 0, i32 3
  store i32 0, ptr %14, align 8, !tbaa !16
  %15 = load i32, ptr %4, align 4, !tbaa !7
  %16 = icmp slt i32 %15, 8192
  br i1 %16, label %17, label %18

17:                                               ; preds = %2
  br label %20

18:                                               ; preds = %2
  %19 = load i32, ptr %4, align 4, !tbaa !7
  br label %20

20:                                               ; preds = %18, %17
  %21 = phi i32 [ 8192, %17 ], [ %19, %18 ]
  %22 = load ptr, ptr %3, align 8, !tbaa !3
  %23 = getelementptr inbounds nuw %struct.VP8TBuffer, ptr %22, i32 0, i32 4
  store i32 %21, ptr %23, align 4, !tbaa !17
  %24 = load ptr, ptr %3, align 8, !tbaa !3
  %25 = getelementptr inbounds nuw %struct.VP8TBuffer, ptr %24, i32 0, i32 5
  store i32 0, ptr %25, align 8, !tbaa !18
  ret void
}