; Function Attrs: mustprogress nofree norecurse nosync nounwind willreturn memory(argmem: write) uwtable
define hidden void @VP8TBufferInit(ptr noundef initializes((0, 8), (16, 24)) %0, i32 noundef %1) local_unnamed_addr #0 {
  %3 = getelementptr inbounds nuw i8, ptr %0, i64 16
  store ptr null, ptr %3, align 8, !tbaa !3
  store ptr null, ptr %0, align 8, !tbaa !12
  %4 = getelementptr inbounds nuw i8, ptr %0, i64 8
  store ptr %0, ptr %4, align 8, !tbaa !13
  %5 = getelementptr inbounds nuw i8, ptr %0, i64 24
  store i32 0, ptr %5, align 8, !tbaa !14
  %6 = tail call i32 @llvm.smax.i32(i32 %1, i32 8192)
  %7 = getelementptr inbounds nuw i8, ptr %0, i64 28
  store i32 %6, ptr %7, align 4, !tbaa !15
  %8 = getelementptr inbounds nuw i8, ptr %0, i64 32
  store i32 0, ptr %8, align 8, !tbaa !16
  ret void
}